Certificate:
    Data:
        Version: 3 (0x2)
        Serial Number: 2 (0x2)
    Signature Algorithm: sha256WithRSAEncryption
        Issuer: C=IT, ST=Italy, L=Torino, O=HBR, OU=MyOrganizationalUnit, CN=OpenVPN-CA/name=EasyRSA/emailAddress=cesare.pec@gmail.com
        Validity
            Not Before: Mar 21 14:20:48 2018 GMT
            Not After : Mar 18 14:20:48 2028 GMT
        Subject: C=IT, ST=Italy, L=Torino, O=HBR, OU=MyOrganizationalUnit, CN=client1/name=EasyRSA/emailAddress=cesare.pec@gmail.com
        Subject Public Key Info:
            Public Key Algorithm: rsaEncryption
                Public-Key: (2048 bit)
                Modulus:
                    00:97:fd:00:a7:be:6c:9a:4e:f4:7a:5d:7a:49:fc:
                    27:68:23:f5:c7:68:ab:09:ae:e7:cd:d3:84:c3:f7:
                    e0:24:e2:b4:b1:21:00:1c:fd:59:11:35:fc:fe:5a:
                    4a:6f:e3:83:e6:8b:31:26:48:da:7e:57:2d:b1:b7:
                    89:46:51:21:67:0a:7e:f3:1c:00:94:56:80:d6:ed:
                    f7:59:c7:d2:fb:1c:67:58:0a:37:71:56:b5:df:c6:
                    7f:51:50:14:14:25:70:2a:60:00:01:b0:e9:5a:ef:
                    5a:39:f1:ae:50:6f:cf:35:56:02:de:f2:f7:03:87:
                    04:f5:d7:64:fa:8a:3f:f9:1a:e3:e9:f5:9a:4f:0d:
                    fa:bf:2b:e4:fc:d0:59:c4:92:29:7b:b4:c8:e1:71:
                    7e:4a:69:54:4a:29:12:85:6a:a8:11:e1:16:8a:83:
                    a5:fc:36:8c:18:e7:c5:eb:ca:7d:07:39:06:f6:52:
                    28:5e:cb:66:0e:5f:3b:37:5b:11:ea:2d:b0:34:3e:
                    1c:fa:d7:67:9e:cf:41:3e:1a:9d:5c:a9:c6:d5:73:
                    09:d7:f2:01:34:98:19:1b:07:08:cb:01:ee:09:42:
                    a7:73:3f:d7:4d:2c:d3:c9:fe:9f:93:7a:c5:52:ca:
                    af:6e:84:32:cd:15:eb:b2:67:c7:40:bc:a2:58:fc:
                    4c:53
                Exponent: 65537 (0x10001)
        X509v3 extensions:
            X509v3 Basic Constraints: 
                CA:FALSE
            Netscape Comment: 
                Easy-RSA Generated Certificate
            X509v3 Subject Key Identifier: 
                E3:11:8A:3D:BE:01:0B:B9:EF:6A:BE:34:38:9D:35:7F:8B:75:6A:8A
            X509v3 Authority Key Identifier: 
                keyid:D4:29:52:CD:CB:27:CE:CF:E2:F3:32:49:FC:25:12:17:7C:13:BA:C4
                DirName:/C=IT/ST=Italy/L=Torino/O=HBR/OU=MyOrganizationalUnit/CN=OpenVPN-CA/name=EasyRSA/emailAddress=cesare.pec@gmail.com
                serial:B8:06:CD:C2:71:2B:F4:60

            X509v3 Extended Key Usage: 
                TLS Web Client Authentication
            X509v3 Key Usage: 
                Digital Signature
            X509v3 Subject Alternative Name: 
                DNS:client1
    Signature Algorithm: sha256WithRSAEncryption
         54:33:bb:59:75:5a:d1:8a:dc:e9:e1:32:3f:75:3e:88:b2:fe:
         0d:c6:17:a6:eb:db:9d:54:8f:68:e3:cb:53:aa:9d:2d:89:02:
         16:6e:2f:cf:21:50:86:97:a1:97:f0:34:5b:60:22:e4:37:6e:
         7a:e2:a9:8c:4c:e0:93:a2:de:3e:3f:0e:64:1e:c7:84:dd:ca:
         97:e2:04:06:2e:93:94:ca:c2:f8:4b:6f:c5:08:63:90:28:8d:
         1e:0d:64:a9:c9:f1:72:31:c8:56:da:3e:81:26:87:7c:ca:f7:
         ea:a4:85:9e:3e:1f:58:f8:7f:d8:ed:13:70:4b:8f:65:5f:ca:
         1c:85:96:10:be:3e:d1:f6:5d:b8:b1:50:1f:b6:09:71:10:ac:
         28:23:55:4a:3c:9a:db:d9:0a:de:8f:a4:fc:28:4a:e7:4d:52:
         42:b4:1a:35:f9:a5:1a:4c:ec:08:81:a9:c4:72:6f:0d:5a:01:
         db:0f:fa:de:7c:60:1b:46:3a:ed:ee:10:d4:9c:fe:b7:10:9f:
         ab:87:08:c6:a7:7f:a2:3a:e9:09:83:c9:47:7e:70:f7:e2:90:
         3c:7a:55:2c:e7:24:a9:b0:65:af:0c:72:3a:2e:d3:ca:3b:19:
         df:cc:98:43:5c:63:c1:68:ff:59:e0:9a:5c:71:64:34:6a:fd:
         1b:47:48:4a
-----BEGIN CERTIFICATE-----
MIIFPDCCBCSgAwIBAgIBAjANBgkqhkiG9w0BAQsFADCBpzELMAkGA1UEBhMCSVQx
DjAMBgNVBAgTBUl0YWx5MQ8wDQYDVQQHEwZUb3Jpbm8xDDAKBgNVBAoTA0hCUjEd
MBsGA1UECxMUTXlPcmdhbml6YXRpb25hbFVuaXQxEzARBgNVBAMTCk9wZW5WUE4t
Q0ExEDAOBgNVBCkTB0Vhc3lSU0ExIzAhBgkqhkiG9w0BCQEWFGNlc2FyZS5wZWNA
Z21haWwuY29tMB4XDTE4MDMyMTE0MjA0OFoXDTI4MDMxODE0MjA0OFowgaQxCzAJ
BgNVBAYTAklUMQ4wDAYDVQQIEwVJdGFseTEPMA0GA1UEBxMGVG9yaW5vMQwwCgYD
VQQKEwNIQlIxHTAbBgNVBAsTFE15T3JnYW5pemF0aW9uYWxVbml0MRAwDgYDVQQD
EwdjbGllbnQxMRAwDgYDVQQpEwdFYXN5UlNBMSMwIQYJKoZIhvcNAQkBFhRjZXNh
cmUucGVjQGdtYWlsLmNvbTCCASIwDQYJKoZIhvcNAQEBBQADggEPADCCAQoCggEB
AJf9AKe+bJpO9Hpdekn8J2gj9cdoqwmu583ThMP34CTitLEhABz9WRE1/P5aSm/j
g+aLMSZI2n5XLbG3iUZRIWcKfvMcAJRWgNbt91nH0vscZ1gKN3FWtd/Gf1FQFBQl
cCpgAAGw6VrvWjnxrlBvzzVWAt7y9wOHBPXXZPqKP/ka4+n1mk8N+r8r5PzQWcSS
KXu0yOFxfkppVEopEoVqqBHhFoqDpfw2jBjnxevKfQc5BvZSKF7LZg5fOzdbEeot
sDQ+HPrXZ57PQT4anVypxtVzCdfyATSYGRsHCMsB7glCp3M/100s08n+n5N6xVLK
r26EMs0V67Jnx0C8olj8TFMCAwEAAaOCAXIwggFuMAkGA1UdEwQCMAAwLQYJYIZI
AYb4QgENBCAWHkVhc3ktUlNBIEdlbmVyYXRlZCBDZXJ0aWZpY2F0ZTAdBgNVHQ4E
FgQU4xGKPb4BC7nvar40OJ01f4t1aoowgdwGA1UdIwSB1DCB0YAU1ClSzcsnzs/i
8zJJ/CUSF3wTusShga2kgaowgacxCzAJBgNVBAYTAklUMQ4wDAYDVQQIEwVJdGFs
eTEPMA0GA1UEBxMGVG9yaW5vMQwwCgYDVQQKEwNIQlIxHTAbBgNVBAsTFE15T3Jn
YW5pemF0aW9uYWxVbml0MRMwEQYDVQQDEwpPcGVuVlBOLUNBMRAwDgYDVQQpEwdF
YXN5UlNBMSMwIQYJKoZIhvcNAQkBFhRjZXNhcmUucGVjQGdtYWlsLmNvbYIJALgG
zcJxK/RgMBMGA1UdJQQMMAoGCCsGAQUFBwMCMAsGA1UdDwQEAwIHgDASBgNVHREE
CzAJggdjbGllbnQxMA0GCSqGSIb3DQEBCwUAA4IBAQBUM7tZdVrRitzp4TI/dT6I
sv4Nxhem69udVI9o48tTqp0tiQIWbi/PIVCGl6GX8DRbYCLkN2564qmMTOCTot4+
Pw5kHseE3cqX4gQGLpOUysL4S2/FCGOQKI0eDWSpyfFyMchW2j6BJod8yvfqpIWe
Ph9Y+H/Y7RNwS49lX8ochZYQvj7R9l24sVAftglxEKwoI1VKPJrb2Qrej6T8KErn
TVJCtBo1+aUaTOwIganEcm8NWgHbD/refGAbRjrt7hDUnP63EJ+rhwjGp3+iOukJ
g8lHfnD34pA8elUs5ySpsGWvDHI6LtPKOxnfzJhDXGPBaP9Z4JpccWQ0av0bR0hK
-----END CERTIFICATE-----
